Certificate:
    Data:
        Version: 3 (0x2)
        Serial Number: 18043684688716538491 (0xfa680b9ff61aa27b)
    Signature Algorithm: sha256WithRSAEncryption
        Issuer: CN=QUIC Server Root CA
        Validity
            Not Before: Aug 19 11:37:04 2019 GMT
            Not After : Aug 22 11:37:04 2019 GMT
        Subject: CN=QUIC Server Root CA
        Subject Public Key Info:
            Public Key Algorithm: rsaEncryption
                Public-Key: (2048 bit)
                Modulus:
                    00:ca:ab:66:da:00:3b:b3:eb:77:ab:c1:d8:63:2e:
                    ae:1e:cd:9c:36:7f:25:ef:2c:a5:c0:64:01:81:b3:
                    91:d0:c2:93:14:53:21:1b:16:a8:7e:c7:57:ed:a1:
                    91:9c:3d:e8:7f:69:45:4d:94:82:fe:5a:3c:fe:4b:
                    8f:74:ad:f4:1e:ab:40:a8:32:53:ff:09:73:1a:35:
                    58:43:75:34:95:83:79:d1:f7:22:42:f4:c4:3d:97:
                    a7:78:84:54:b5:9f:4f:90:2f:c6:cc:60:80:01:36:
                    05:1b:62:8d:b3:17:2e:18:61:e0:7d:fd:69:d5:5d:
                    d6:b5:b0:98:fb:87:9f:86:9c:f1:30:01:96:57:c7:
                    1d:08:b2:f2:9a:28:6f:03:d3:e2:0b:2a:b3:80:3e:
                    f0:8c:c8:4f:b0:d5:7d:2b:77:fd:0b:21:08:b3:79:
                    c5:6c:23:4d:c0:86:df:5e:d8:1e:a9:c9:a3:a5:47:
                    8e:e5:5d:b4:f7:9a:6c:58:1b:a9:84:73:70:f8:85:
                    7e:ce:ca:5d:bb:66:0b:30:0a:22:45:83:78:62:d1:
                    b8:09:a3:ae:f7:81:72:bc:1f:a2:eb:1b:6e:95:8a:
                    a6:b0:7c:c5:78:f4:d1:fe:6a:b7:74:6f:e7:27:ae:
                    a1:41:cd:09:17:e0:25:31:57:4a:de:1d:4a:4d:94:
                    48:85
                Exponent: 65537 (0x10001)
        X509v3 extensions:
            X509v3 Basic Constraints: critical
                CA:TRUE
            X509v3 Subject Key Identifier: 
                B3:F0:E9:3E:F3:F5:40:6E:CC:8F:1D:77:A0:06:81:8F:D0:4C:23:F8
            X509v3 Key Usage: critical
                Certificate Sign, CRL Sign
    Signature Algorithm: sha256WithRSAEncryption
         87:55:40:5b:ad:46:19:52:72:d0:96:1d:76:d3:e7:d5:95:d2:
         5d:dc:ad:8c:75:dd:dd:87:cb:7b:58:20:5f:2a:51:56:d7:10:
         56:2c:0b:69:b8:a2:68:9b:33:8f:e2:f3:81:20:d7:c6:73:72:
         fe:5c:84:9f:81:bf:94:da:d6:aa:85:46:bc:28:56:38:94:ae:
         e7:6e:75:af:39:06:d2:83:38:27:dd:b9:30:20:16:03:39:5b:
         b0:39:f6:cf:ea:e4:d8:2c:e1:63:c9:86:1f:35:0e:08:36:c4:
         3f:2f:41:de:41:52:a9:6b:f3:b4:08:23:60:64:be:e7:d6:62:
         48:72:cc:06:85:93:42:c3:fd:5f:ef:f8:c6:1a:42:fb:ea:f4:
         dc:4c:c7:1c:60:ad:d0:43:8b:79:38:97:b0:e1:32:11:4d:f2:
         e7:56:4d:b4:1e:89:4d:d7:92:57:0b:37:93:0a:01:2f:94:f0:
         ef:c7:eb:e8:46:da:a6:33:fc:ac:ef:c2:4f:c8:26:47:3b:54:
         5c:5e:3e:27:ad:9e:77:8e:5b:a4:88:13:da:56:ac:9e:81:ba:
         0a:16:70:c8:25:c8:31:7e:f2:de:d1:d7:35:c4:29:e0:83:9b:
         0a:a8:df:4d:e2:ba:d5:54:01:e8:05:1b:44:b8:46:90:f3:b5:
         62:4c:41:0e
-----BEGIN CERTIFICATE-----
MIIDATCCAemgAwIBAgIJAPpoC5/2GqJ7MA0GCSqGSIb3DQEBCwUAMB4xHDAaBgNV
BAMME1FVSUMgU2VydmVyIFJvb3QgQ0EwHhcNMTkwODE5MTEzNzA0WhcNMTkwODIy
MTEzNzA0WjAeMRwwGgYDVQQDDBNRVUlDIFNlcnZlciBSb290IENBMIIBIjANBgkq
hkiG9w0BAQEFAAOCAQ8AMIIBCgKCAQEAyqtm2gA7s+t3q8HYYy6uHs2cNn8l7yyl
wGQBgbOR0MKTFFMhGxaofsdX7aGRnD3of2lFTZSC/lo8/kuPdK30HqtAqDJT/wlz
GjVYQ3U0lYN50fciQvTEPZeneIRUtZ9PkC/GzGCAATYFG2KNsxcuGGHgff1p1V3W
tbCY+4efhpzxMAGWV8cdCLLymihvA9PiCyqzgD7wjMhPsNV9K3f9CyEIs3nFbCNN
wIbfXtgeqcmjpUeO5V2095psWBuphHNw+IV+zspdu2YLMAoiRYN4YtG4CaOu94Fy
vB+i6xtulYqmsHzFePTR/mq3dG/nJ66hQc0JF+AlMVdK3h1KTZRIhQIDAQABo0Iw
QDAPBgNVHRMBAf8EBTADAQH/MB0GA1UdDgQWBBSz8Ok+8/VAbsyPHXegBoGP0Ewj
+DAOBgNVHQ8BAf8EBAMCAQYwDQYJKoZIhvcNAQELBQADggEBAIdVQFutRhlSctCW
HXbT59WV0l3crYx13d2Hy3tYIF8qUVbXEFYsC2m4omibM4/i84Eg18Zzcv5chJ+B
v5Ta1qqFRrwoVjiUrududa85BtKDOCfduTAgFgM5W7A59s/q5Ngs4WPJhh81Dgg2
xD8vQd5BUqlr87QII2BkvufWYkhyzAaFk0LD/V/v+MYaQvvq9NxMxxxgrdBDi3k4
l7DhMhFN8udWTbQeiU3XklcLN5MKAS+U8O/H6+hG2qYz/Kzvwk/IJkc7VFxePiet
nneOW6SIE9pWrJ6BugoWcMglyDF+8t7R1zXEKeCDmwqo303iutVUAegFG0S4RpDz
tWJMQQ4=
-----END CERTIFICATE-----
