Certificate:
    Data:
        Version: 3 (0x2)
        Serial Number: 1 (0x1)
    Signature Algorithm: sha256WithRSAEncryption
        Issuer: CN=QUIC Server Root CA
        Validity
            Not Before: Aug 19 11:37:04 2019 GMT
            Not After : Aug 22 11:37:04 2019 GMT
        Subject: C=US, ST=California, L=Mountain View, O=QUIC Server, CN=127.0.0.1
        Subject Public Key Info:
            Public Key Algorithm: rsaEncryption
                Public-Key: (2048 bit)
                Modulus:
                    00:b5:f1:97:e9:6d:83:b2:8b:e0:a1:fe:be:45:29:
                    af:69:8f:b5:0d:c6:de:76:1a:bc:60:b5:38:30:2d:
                    0d:90:ad:ec:4b:4e:85:e7:3b:e0:72:17:cf:93:16:
                    d4:ea:7a:63:f0:91:30:86:2f:21:9c:0b:3d:2c:6f:
                    f0:26:bc:8b:b4:f8:22:f7:6a:cf:fe:16:5d:46:85:
                    64:ae:bd:45:21:60:27:f2:c5:b9:de:70:c9:f4:7b:
                    04:1a:57:ec:7e:67:0a:19:ab:1a:01:76:8d:1f:40:
                    19:72:c7:4c:18:fc:4f:92:fd:ab:b9:fb:1f:82:15:
                    f2:ef:87:cf:46:45:df:ed:de:8a:23:63:2b:93:7a:
                    83:d6:d6:12:c2:f6:41:02:9a:06:98:85:ec:d2:e6:
                    3e:7f:08:25:9c:c9:84:47:89:d7:06:52:f2:a5:dd:
                    0d:b3:31:e4:b0:05:33:21:c1:1c:7d:db:21:6a:e4:
                    16:28:0b:e8:06:c9:15:76:e5:42:c5:60:a5:2f:18:
                    a9:b3:66:5a:b6:df:1e:34:17:53:9b:f8:b5:10:48:
                    d2:fa:2b:b6:4d:dd:57:72:d8:0b:e9:aa:98:90:fa:
                    b9:72:22:a6:a2:ea:a8:e5:9a:28:46:d4:54:36:8b:
                    7a:0f:15:11:ea:0a:ac:9e:5a:41:07:16:9d:bb:de:
                    fd:1f
                Exponent: 65537 (0x10001)
        X509v3 extensions:
            X509v3 Basic Constraints: critical
                CA:FALSE
            X509v3 Subject Key Identifier: 
                B1:B1:FB:04:A5:18:8F:26:E0:8F:5B:A2:2C:0B:B1:85:93:F8:29:2A
            X509v3 Authority Key Identifier: 
                keyid:B3:F0:E9:3E:F3:F5:40:6E:CC:8F:1D:77:A0:06:81:8F:D0:4C:23:F8

            X509v3 Extended Key Usage: 
                TLS Web Server Authentication, TLS Web Client Authentication
            X509v3 Subject Alternative Name: 
                DNS:www.example.org, DNS:mail.example.org, DNS:mail.example.com, IP Address:127.0.0.1
    Signature Algorithm: sha256WithRSAEncryption
         84:99:35:ed:1d:96:27:c1:49:d0:13:af:dd:68:03:95:05:64:
         ba:a3:a4:50:f4:ef:05:a7:10:86:2f:74:c3:5b:3c:47:25:79:
         1a:d8:1d:34:91:45:8c:e9:f4:69:d8:dd:90:c5:bc:b5:56:05:
         d5:7d:b3:e7:e1:e3:91:4a:61:a5:f2:2c:f0:ac:50:32:b0:c4:
         c0:76:6d:a0:55:24:e8:10:b1:68:22:1e:d6:a2:2a:f9:5e:76:
         6d:6e:f7:8a:79:62:fa:12:1e:4d:83:64:29:39:e5:44:3b:85:
         08:82:33:ca:f0:86:fa:00:ab:70:73:d9:c2:9e:10:f8:51:53:
         82:41:05:c2:10:50:80:b3:a2:62:0e:ac:8e:1c:4f:6c:ce:b5:
         23:f2:19:51:41:d4:73:cb:56:e8:b6:b8:48:c7:4b:df:49:a9:
         0f:0a:e2:1e:8e:f4:bd:aa:48:6b:6d:1a:01:06:b5:50:18:32:
         71:7f:02:c2:52:9f:3b:17:2d:1e:8f:82:2b:f9:22:06:74:8d:
         90:fa:ce:a0:6d:dc:28:5c:85:9d:f9:b0:e0:0d:61:d3:7e:a0:
         4a:e4:e3:d4:91:4e:07:ec:03:f4:05:f1:b7:b8:4b:63:f9:e8:
         cd:f4:c4:97:71:1e:f6:56:80:38:71:1d:97:8b:ea:e7:0d:9d:
         be:7c:75:e5
-----BEGIN CERTIFICATE-----
MIIDtDCCApygAwIBAgIBATANBgkqhkiG9w0BAQsFADAeMRwwGgYDVQQDDBNRVUlD
IFNlcnZlciBSb290IENBMB4XDTE5MDgxOTExMzcwNFoXDTE5MDgyMjExMzcwNFow
ZDELMAkGA1UEBhMCVVMxEzARBgNVBAgMCkNhbGlmb3JuaWExFjAUBgNVBAcMDU1v
dW50YWluIFZpZXcxFDASBgNVBAoMC1FVSUMgU2VydmVyMRIwEAYDVQQDDAkxMjcu
MC4wLjEwggEiMA0GCSqGSIb3DQEBAQUAA4IBDwAwggEKAoIBAQC18ZfpbYOyi+Ch
/r5FKa9pj7UNxt52GrxgtTgwLQ2QrexLToXnO+ByF8+TFtTqemPwkTCGLyGcCz0s
b/AmvIu0+CL3as/+Fl1GhWSuvUUhYCfyxbnecMn0ewQaV+x+ZwoZqxoBdo0fQBly
x0wY/E+S/au5+x+CFfLvh89GRd/t3oojYyuTeoPW1hLC9kECmgaYhezS5j5/CCWc
yYRHidcGUvKl3Q2zMeSwBTMhwRx92yFq5BYoC+gGyRV25ULFYKUvGKmzZlq23x40
F1Ob+LUQSNL6K7ZN3Vdy2AvpqpiQ+rlyIqai6qjlmihG1FQ2i3oPFRHqCqyeWkEH
Fp273v0fAgMBAAGjgbYwgbMwDAYDVR0TAQH/BAIwADAdBgNVHQ4EFgQUsbH7BKUY
jybgj1uiLAuxhZP4KSowHwYDVR0jBBgwFoAUs/DpPvP1QG7Mjx13oAaBj9BMI/gw
HQYDVR0lBBYwFAYIKwYBBQUHAwEGCCsGAQUFBwMCMEQGA1UdEQQ9MDuCD3d3dy5l
eGFtcGxlLm9yZ4IQbWFpbC5leGFtcGxlLm9yZ4IQbWFpbC5leGFtcGxlLmNvbYcE
fwAAATANBgkqhkiG9w0BAQsFAAOCAQEAhJk17R2WJ8FJ0BOv3WgDlQVkuqOkUPTv
BacQhi90w1s8RyV5GtgdNJFFjOn0adjdkMW8tVYF1X2z5+HjkUphpfIs8KxQMrDE
wHZtoFUk6BCxaCIe1qIq+V52bW73inli+hIeTYNkKTnlRDuFCIIzyvCG+gCrcHPZ
wp4Q+FFTgkEFwhBQgLOiYg6sjhxPbM61I/IZUUHUc8tW6La4SMdL30mpDwriHo70
vapIa20aAQa1UBgycX8CwlKfOxctHo+CK/kiBnSNkPrOoG3cKFyFnfmw4A1h036g
SuTj1JFOB+wD9AXxt7hLY/nozfTEl3Ee9laAOHEdl4vq5w2dvnx15Q==
-----END CERTIFICATE-----
